target datalayout = "e-m:e-p270:32:32-p271:32:32-p272:64:64-i64:64-i128:128-f80:128-n8:16:32:64-S128"
target triple = "x86_64-pc-linux-gnu"

; Function Attrs: nounwind uwtable
define dso_local i32 @Curl_httpchunk_add_reader(ptr noundef %0) #0 {
  %2 = alloca ptr, align 8
  %3 = alloca ptr, align 8
  %4 = alloca i32, align 4
  store ptr %0, ptr %2, align 8, !tbaa !4
  call void @llvm.lifetime.start.p0(i64 8, ptr %3) #5
  store ptr null, ptr %3, align 8, !tbaa !109
  call void @llvm.lifetime.start.p0(i64 4, ptr %4) #5
  %5 = load ptr, ptr %2, align 8, !tbaa !4
  %6 = call i32 @Curl_creader_create(ptr noundef %3, ptr noundef %5, ptr noundef @Curl_httpchunk_encoder, i32 noundef 1)
  store i32 %6, ptr %4, align 4, !tbaa !29
  %7 = load i32, ptr %4, align 4, !tbaa !29
  %8 = icmp ne i32 %7, 0
  br i1 %8, label %13, label %9

9:                                                ; preds = %1
  %10 = load ptr, ptr %2, align 8, !tbaa !4
  %11 = load ptr, ptr %3, align 8, !tbaa !109
  %12 = call i32 @Curl_creader_add(ptr noundef %10, ptr noundef %11)
  store i32 %12, ptr %4, align 4, !tbaa !29
  br label %13

13:                                               ; preds = %9, %1
  %14 = load i32, ptr %4, align 4, !tbaa !29
  %15 = icmp ne i32 %14, 0
  br i1 %15, label %16, label %22

16:                                               ; preds = %13
  %17 = load ptr, ptr %3, align 8, !tbaa !109
  %18 = icmp ne ptr %17, null
  br i1 %18, label %19, label %22

19:                                               ; preds = %16
  %20 = load ptr, ptr %2, align 8, !tbaa !4
  %21 = load ptr, ptr %3, align 8, !tbaa !109
  call void @Curl_creader_free(ptr noundef %20, ptr noundef %21)
  br label %22

22:                                               ; preds = %19, %16, %13
  %23 = load i32, ptr %4, align 4, !tbaa !29
  call void @llvm.lifetime.end.p0(i64 4, ptr %4) #5
  call void @llvm.lifetime.end.p0(i64 8, ptr %3) #5
  ret i32 %23
}