; Function Attrs: nounwind uwtable
define dso_local i32 @Curl_httpchunk_add_reader(ptr noundef %0) local_unnamed_addr #0 {
  %2 = alloca ptr, align 8
  call void @llvm.lifetime.start.p0(i64 8, ptr nonnull %2) #8
  store ptr null, ptr %2, align 8, !tbaa !109
  %3 = call i32 @Curl_creader_create(ptr noundef nonnull %2, ptr noundef %0, ptr noundef nonnull @Curl_httpchunk_encoder, i32 noundef 1) #8
  %.not = icmp eq i32 %3, 0
  br i1 %.not, label %4, label %7

4:                                                ; preds = %1
  %5 = load ptr, ptr %2, align 8, !tbaa !109
  %6 = call i32 @Curl_creader_add(ptr noundef %0, ptr noundef %5) #8
  br label %7

7:                                                ; preds = %4, %1
  %.0 = phi i32 [ %3, %1 ], [ %6, %4 ]
  %8 = icmp ne i32 %.0, 0
  %9 = load ptr, ptr %2, align 8
  %10 = icmp ne ptr %9, null
  %or.cond = select i1 %8, i1 %10, i1 false
  br i1 %or.cond, label %11, label %12

11:                                               ; preds = %7
  call void @Curl_creader_free(ptr noundef %0, ptr noundef nonnull %9) #8
  br label %12

12:                                               ; preds = %11, %7
  call void @llvm.lifetime.end.p0(i64 8, ptr nonnull %2) #8
  ret i32 %.0
}